; Function Attrs: mustprogress uwtable
define noundef zeroext i1 @_ZN7rocksdb14ThreadLocalPtr10StaticMeta14CompareAndSwapEjPvRS2_(ptr nonnull readnone align 8 captures(none) %0, i32 noundef %1, ptr noundef %2, ptr noundef nonnull align 8 captures(none) dereferenceable(8) %3) local_unnamed_addr #0 align 2 personality ptr @__gxx_personality_v0 {
  %5 = tail call noundef ptr @_ZN7rocksdb14ThreadLocalPtr10StaticMeta14GetThreadLocalEv()
  %6 = zext i32 %1 to i64
  %7 = getelementptr inbounds nuw i8, ptr %5, i64 8
  %8 = load ptr, ptr %7, align 8, !tbaa !70
  %9 = load ptr, ptr %5, align 8, !tbaa !38
  %10 = ptrtoint ptr %8 to i64
  %11 = ptrtoint ptr %9 to i64
  %12 = sub i64 %10, %11
  %13 = ashr exact i64 %12, 3
  %.not = icmp ugt i64 %13, %6
  br i1 %.not, label %_ZN7rocksdb9MutexLockD2Ev.exit, label %14, !prof !71

14:                                               ; preds = %4
  %15 = tail call noundef ptr @_ZN7rocksdb14ThreadLocalPtr10StaticMeta5MutexEv()
  tail call void @_ZN7rocksdb4port5Mutex4LockEv(ptr noundef nonnull align 8 dereferenceable(40) %15)
  %16 = add i32 %1, 1
  %17 = zext i32 %16 to i64
  invoke void @_ZNSt6vectorIN7rocksdb5EntryESaIS1_EE6resizeEm(ptr noundef nonnull align 8 dereferenceable(24) %5, i64 noundef %17)
          to label %18 unwind label %22

18:                                               ; preds = %14
  invoke void @_ZN7rocksdb4port5Mutex6UnlockEv(ptr noundef nonnull align 8 dereferenceable(40) %15)
          to label %._ZN7rocksdb9MutexLockD2Ev.exit_crit_edge unwind label %19

._ZN7rocksdb9MutexLockD2Ev.exit_crit_edge:        ; preds = %18
  %.pre = load ptr, ptr %5, align 8, !tbaa !38
  br label %_ZN7rocksdb9MutexLockD2Ev.exit

19:                                               ; preds = %18
  %20 = landingpad { ptr, i32 }
          catch ptr null
  %21 = extractvalue { ptr, i32 } %20, 0
  tail call void @__clang_call_terminate(ptr %21) #22
  unreachable

22:                                               ; preds = %14
  %23 = landingpad { ptr, i32 }
          cleanup
  invoke void @_ZN7rocksdb4port5Mutex6UnlockEv(ptr noundef nonnull align 8 dereferenceable(40) %15)
          to label %_ZN7rocksdb9MutexLockD2Ev.exit9 unwind label %24

24:                                               ; preds = %22
  %25 = landingpad { ptr, i32 }
          catch ptr null
  %26 = extractvalue { ptr, i32 } %25, 0
  tail call void @__clang_call_terminate(ptr %26) #22
  unreachable

_ZN7rocksdb9MutexLockD2Ev.exit9:                  ; preds = %22
  resume { ptr, i32 } %23

_ZN7rocksdb9MutexLockD2Ev.exit:                   ; preds = %._ZN7rocksdb9MutexLockD2Ev.exit_crit_edge, %4
  %27 = phi ptr [ %.pre, %._ZN7rocksdb9MutexLockD2Ev.exit_crit_edge ], [ %9, %4 ]
  %28 = getelementptr inbounds nuw %"struct.rocksdb::Entry", ptr %27, i64 %6
  %29 = load i64, ptr %3, align 8
  %30 = ptrtoint ptr %2 to i64
  %31 = cmpxchg ptr %28, i64 %29, i64 %30 release monotonic, align 8
  %32 = extractvalue { i64, i1 } %31, 1
  br i1 %32, label %_ZNSt6atomicIPvE23compare_exchange_strongERS0_S0_St12memory_orderS3_.exit, label %_ZNSt13__atomic_baseIPvE23compare_exchange_strongERS0_S0_St12memory_orderS3_.exit.sink.split.i

_ZNSt13__atomic_baseIPvE23compare_exchange_strongERS0_S0_St12memory_orderS3_.exit.sink.split.i: ; preds = %_ZN7rocksdb9MutexLockD2Ev.exit
  %33 = extractvalue { i64, i1 } %31, 0
  store i64 %33, ptr %3, align 8
  br label %_ZNSt6atomicIPvE23compare_exchange_strongERS0_S0_St12memory_orderS3_.exit

_ZNSt6atomicIPvE23compare_exchange_strongERS0_S0_St12memory_orderS3_.exit: ; preds = %_ZN7rocksdb9MutexLockD2Ev.exit, %_ZNSt13__atomic_baseIPvE23compare_exchange_strongERS0_S0_St12memory_orderS3_.exit.sink.split.i
  ret i1 %32
}